; ModuleID = '38/1413.c'
source_filename = "38/1413.c"
target datalayout = "e-m:e-p270:32:32-p271:32:32-p272:64:64-i64:64-f80:128-n8:16:32:64-S128"
target triple = "x86_64-pc-linux-gnu"

@.str = private unnamed_addr constant [3 x i8] c"%d\00", align 1
@.str.1 = private unnamed_addr constant [4 x i8] c"%lf\00", align 1
@.str.2 = private unnamed_addr constant [6 x i8] c"%.5f\0A\00", align 1

; Function Attrs: noinline nounwind uwtable
define dso_local void @main() #0 {
  %1 = alloca i32, align 4
  %2 = alloca i32, align 4
  %3 = alloca i32, align 4
  %4 = alloca [100 x double*], align 16
  %5 = alloca double, align 8
  %6 = alloca double, align 8
  store i32 0, i32* %3, align 4
  %7 = bitcast [100 x double*]* %4 to i8*
  call void @llvm.memset.p0i8.i64(i8* align 16 %7, i8 0, i64 800, i1 false)
  store double 0.000000e+00, double* %5, align 8
  store double 0.000000e+00, double* %6, align 8
  %8 = call i32 (i8*, ...) @__isoc99_scanf(i8* getelementptr inbounds ([3 x i8], [3 x i8]* @.str, i64 0, i64 0), i32* %1)
  %9 = load i32, i32* %1, align 4
  br label %10

10:                                               ; preds = %90, %0
  %11 = load i32, i32* %1, align 4
  %12 = icmp sgt i32 %11, 0
  br i1 %12, label %13, label %93

13:                                               ; preds = %10
  %14 = call i32 (i8*, ...) @__isoc99_scanf(i8* getelementptr inbounds ([3 x i8], [3 x i8]* @.str, i64 0, i64 0), i32* %2)
  store double 0.000000e+00, double* %6, align 8
  store i32 0, i32* %3, align 4
  br label %15

15:                                               ; preds = %36, %13
  %16 = load i32, i32* %3, align 4
  %17 = load i32, i32* %2, align 4
  %18 = icmp slt i32 %16, %17
  br i1 %18, label %19, label %39

19:                                               ; preds = %15
  %20 = call noalias i8* @malloc(i64 8) #4
  %21 = bitcast i8* %20 to double*
  %22 = getelementptr inbounds [100 x double*], [100 x double*]* %4, i64 0, i64 0
  %23 = load i32, i32* %3, align 4
  %24 = sext i32 %23 to i64
  %25 = getelementptr inbounds double*, double** %22, i64 %24
  store double* %21, double** %25, align 8
  %26 = call i32 (i8*, ...) @__isoc99_scanf(i8* getelementptr inbounds ([4 x i8], [4 x i8]* @.str.1, i64 0, i64 0), double* %5)
  %27 = load double, double* %5, align 8
  %28 = getelementptr inbounds [100 x double*], [100 x double*]* %4, i64 0, i64 0
  %29 = load i32, i32* %3, align 4
  %30 = sext i32 %29 to i64
  %31 = getelementptr inbounds double*, double** %28, i64 %30
  %32 = load double*, double** %31, align 8
  store double %27, double* %32, align 8
  %33 = load double, double* %6, align 8
  %34 = load double, double* %5, align 8
  %35 = fadd double %33, %34
  store double %35, double* %6, align 8
  br label %36

36:                                               ; preds = %19
  %37 = load i32, i32* %3, align 4
  %38 = add nsw i32 %37, 1
  store i32 %38, i32* %3, align 4
  br label %15

39:                                               ; preds = %15
  %40 = load double, double* %6, align 8
  %41 = load i32, i32* %2, align 4
  %42 = sitofp i32 %41 to double
  %43 = fdiv double %40, %42
  store double %43, double* %6, align 8
  store double 0.000000e+00, double* %5, align 8
  store i32 0, i32* %3, align 4
  br label %44

44:                                               ; preds = %79, %39
  %45 = load i32, i32* %3, align 4
  %46 = load i32, i32* %2, align 4
  %47 = icmp slt i32 %45, %46
  br i1 %47, label %48, label %82

48:                                               ; preds = %44
  %49 = getelementptr inbounds [100 x double*], [100 x double*]* %4, i64 0, i64 0
  %50 = load i32, i32* %3, align 4
  %51 = sext i32 %50 to i64
  %52 = getelementptr inbounds double*, double** %49, i64 %51
  %53 = load double*, double** %52, align 8
  %54 = load double, double* %53, align 8
  %55 = load double, double* %6, align 8
  %56 = fsub double %54, %55
  %57 = getelementptr inbounds [100 x double*], [100 x double*]* %4, i64 0, i64 0
  %58 = load i32, i32* %3, align 4
  %59 = sext i32 %58 to i64
  %60 = getelementptr inbounds double*, double** %57, i64 %59
  %61 = load double*, double** %60, align 8
  %62 = load double, double* %61, align 8
  %63 = load double, double* %6, align 8
  %64 = fsub double %62, %63
  %65 = fmul double %56, %64
  %66 = getelementptr inbounds [100 x double*], [100 x double*]* %4, i64 0, i64 0
  %67 = load i32, i32* %3, align 4
  %68 = sext i32 %67 to i64
  %69 = getelementptr inbounds double*, double** %66, i64 %68
  %70 = load double*, double** %69, align 8
  store double %65, double* %70, align 8
  %71 = load double, double* %5, align 8
  %72 = getelementptr inbounds [100 x double*], [100 x double*]* %4, i64 0, i64 0
  %73 = load i32, i32* %3, align 4
  %74 = sext i32 %73 to i64
  %75 = getelementptr inbounds double*, double** %72, i64 %74
  %76 = load double*, double** %75, align 8
  %77 = load double, double* %76, align 8
  %78 = fadd double %71, %77
  store double %78, double* %5, align 8
  br label %79

79:                                               ; preds = %48
  %80 = load i32, i32* %3, align 4
  %81 = add nsw i32 %80, 1
  store i32 %81, i32* %3, align 4
  br label %44

82:                                               ; preds = %44
  %83 = load double, double* %5, align 8
  %84 = load i32, i32* %2, align 4
  %85 = sitofp i32 %84 to double
  %86 = fdiv double %83, %85
  %87 = call double @sqrt(double %86) #4
  store double %87, double* %5, align 8
  %88 = load double, double* %5, align 8
  %89 = call i32 (i8*, ...) @printf(i8* getelementptr inbounds ([6 x i8], [6 x i8]* @.str.2, i64 0, i64 0), double %88)
  br label %90

90:                                               ; preds = %82
  %91 = load i32, i32* %1, align 4
  %92 = add nsw i32 %91, -1
  store i32 %92, i32* %1, align 4
  br label %10

93:                                               ; preds = %10
  ret void
}

; Function Attrs: argmemonly nounwind willreturn
declare void @llvm.memset.p0i8.i64(i8* nocapture writeonly, i8, i64, i1 immarg) #1

declare dso_local i32 @__isoc99_scanf(i8*, ...) #2

; Function Attrs: nounwind
declare dso_local noalias i8* @malloc(i64) #3

; Function Attrs: nounwind
declare dso_local double @sqrt(double) #3

declare dso_local i32 @printf(i8*, ...) #2


!llvm.module.flags = !{!0}
!llvm.ident = !{!1}

!0 = !{i32 1, !"wchar_size", i32 4}
!1 = !{!"clang version 10.0.0-4ubuntu1 "}
